target datalayout = "e-m:e-p270:32:32-p271:32:32-p272:64:64-i64:64-i128:128-f80:128-n8:16:32:64-S128"
target triple = "x86_64-pc-linux-gnu"

%struct.ewah_bitmap = type { ptr, i64, i64, i64, ptr }

; Function Attrs: nounwind uwtable
define dso_local i64 @ewah_add(ptr noundef %0, i64 noundef %1) #0 {
  %3 = alloca i64, align 8
  %4 = alloca ptr, align 8
  %5 = alloca i64, align 8
  store ptr %0, ptr %4, align 8, !tbaa !4
  store i64 %1, ptr %5, align 8, !tbaa !11
  %6 = load ptr, ptr %4, align 8, !tbaa !4
  %7 = getelementptr inbounds nuw %struct.ewah_bitmap, ptr %6, i32 0, i32 3
  %8 = load i64, ptr %7, align 8, !tbaa !13
  %9 = add i64 %8, 64
  store i64 %9, ptr %7, align 8, !tbaa !13
  %10 = load i64, ptr %5, align 8, !tbaa !11
  %11 = icmp eq i64 %10, 0
  br i1 %11, label %12, label %15

12:                                               ; preds = %2
  %13 = load ptr, ptr %4, align 8, !tbaa !4
  %14 = call i64 @add_empty_word(ptr noundef %13, i32 noundef 0)
  store i64 %14, ptr %3, align 8
  br label %25

15:                                               ; preds = %2
  %16 = load i64, ptr %5, align 8, !tbaa !11
  %17 = icmp eq i64 %16, -1
  br i1 %17, label %18, label %21

18:                                               ; preds = %15
  %19 = load ptr, ptr %4, align 8, !tbaa !4
  %20 = call i64 @add_empty_word(ptr noundef %19, i32 noundef 1)
  store i64 %20, ptr %3, align 8
  br label %25

21:                                               ; preds = %15
  %22 = load ptr, ptr %4, align 8, !tbaa !4
  %23 = load i64, ptr %5, align 8, !tbaa !11
  %24 = call i64 @add_literal(ptr noundef %22, i64 noundef %23)
  store i64 %24, ptr %3, align 8
  br label %25

25:                                               ; preds = %21, %18, %12
  %26 = load i64, ptr %3, align 8
  ret i64 %26
}