; Function Attrs: nounwind uwtable
define dso_local range(i64 0, 3) i64 @ewah_add(ptr noundef captures(none) %0, i64 noundef %1) local_unnamed_addr #0 {
  %3 = getelementptr inbounds nuw i8, ptr %0, i64 24
  %4 = load i64, ptr %3, align 8, !tbaa !4
  %5 = add i64 %4, 64
  store i64 %5, ptr %3, align 8, !tbaa !4
  switch i64 %1, label %10 [
    i64 0, label %6
    i64 -1, label %8
  ]

6:                                                ; preds = %2
  %7 = tail call fastcc i64 @add_empty_word(ptr noundef nonnull %0, i32 noundef 0)
  br label %12

8:                                                ; preds = %2
  %9 = tail call fastcc i64 @add_empty_word(ptr noundef nonnull %0, i32 noundef 1)
  br label %12

10:                                               ; preds = %2
  %11 = tail call fastcc i64 @add_literal(ptr noundef nonnull %0, i64 noundef %1)
  br label %12

12:                                               ; preds = %10, %8, %6
  %.0 = phi i64 [ %7, %6 ], [ %9, %8 ], [ %11, %10 ]
  ret i64 %.0
}